#include <math.h>
#include <stdio.h>
#include <stdlib.h>
#include <string.h>
#include <iostream>
using namespace std;

void change(int);
int main()
{ 
 int n;
 cin>>n;
  for(;n!=1;)
    {if(n%2==0) {cout<<n<<"/2="<<n/2<<endl;n=n/2;}
     if(n%2==1&&n!=1)  {cout<<n<<"*3+1="<<n*3+1<<endl;n=3*n+1;}
     }
  cout<<"End";
      

return 0;
}